target datalayout = "e-m:e-p270:32:32-p271:32:32-p272:64:64-i64:64-i128:128-f80:128-n8:16:32:64-S128"
target triple = "x86_64-pc-linux-gnu"

; Function Attrs: nounwind uwtable
define void @ff_ivi_row_slant4(ptr noundef %0, ptr noundef %1, i64 noundef %2, ptr noundef %3) #0 {
  %5 = alloca ptr, align 8
  %6 = alloca ptr, align 8
  %7 = alloca i64, align 8
  %8 = alloca ptr, align 8
  %9 = alloca i32, align 4
  %10 = alloca i32, align 4
  %11 = alloca i32, align 4
  %12 = alloca i32, align 4
  %13 = alloca i32, align 4
  %14 = alloca i32, align 4
  store ptr %0, ptr %5, align 8, !tbaa !40
  store ptr %1, ptr %6, align 8, !tbaa !30
  store i64 %2, ptr %7, align 8, !tbaa !11
  store ptr %3, ptr %8, align 8, !tbaa !9
  call void @llvm.lifetime.start.p0(i64 4, ptr %9) #4
  call void @llvm.lifetime.start.p0(i64 4, ptr %10) #4
  call void @llvm.lifetime.start.p0(i64 4, ptr %11) #4
  call void @llvm.lifetime.start.p0(i64 4, ptr %12) #4
  call void @llvm.lifetime.start.p0(i64 4, ptr %13) #4
  call void @llvm.lifetime.start.p0(i64 4, ptr %14) #4
  store i32 0, ptr %9, align 4, !tbaa !13
  br label %15

15:                                               ; preds = %129, %4
  %16 = load i32, ptr %9, align 4, !tbaa !13
  %17 = icmp slt i32 %16, 4
  br i1 %17, label %18, label %132

18:                                               ; preds = %15
  %19 = load ptr, ptr %5, align 8, !tbaa !40
  %20 = getelementptr inbounds i32, ptr %19, i64 0
  %21 = load i32, ptr %20, align 4, !tbaa !13
  %22 = icmp ne i32 %21, 0
  br i1 %22, label %40, label %23

23:                                               ; preds = %18
  %24 = load ptr, ptr %5, align 8, !tbaa !40
  %25 = getelementptr inbounds i32, ptr %24, i64 1
  %26 = load i32, ptr %25, align 4, !tbaa !13
  %27 = icmp ne i32 %26, 0
  br i1 %27, label %40, label %28

28:                                               ; preds = %23
  %29 = load ptr, ptr %5, align 8, !tbaa !40
  %30 = getelementptr inbounds i32, ptr %29, i64 2
  %31 = load i32, ptr %30, align 4, !tbaa !13
  %32 = icmp ne i32 %31, 0
  br i1 %32, label %40, label %33

33:                                               ; preds = %28
  %34 = load ptr, ptr %5, align 8, !tbaa !40
  %35 = getelementptr inbounds i32, ptr %34, i64 3
  %36 = load i32, ptr %35, align 4, !tbaa !13
  %37 = icmp ne i32 %36, 0
  br i1 %37, label %40, label %38

38:                                               ; preds = %33
  %39 = load ptr, ptr %6, align 8, !tbaa !30
  call void @llvm.memset.p0.i64(ptr align 2 %39, i8 0, i64 8, i1 false)
  br label %123

40:                                               ; preds = %33, %28, %23, %18
  %41 = load ptr, ptr %5, align 8, !tbaa !40
  %42 = getelementptr inbounds i32, ptr %41, i64 0
  %43 = load i32, ptr %42, align 4, !tbaa !13
  %44 = load ptr, ptr %5, align 8, !tbaa !40
  %45 = getelementptr inbounds i32, ptr %44, i64 2
  %46 = load i32, ptr %45, align 4, !tbaa !13
  %47 = sub nsw i32 %43, %46
  store i32 %47, ptr %10, align 4, !tbaa !13
  %48 = load ptr, ptr %5, align 8, !tbaa !40
  %49 = getelementptr inbounds i32, ptr %48, i64 0
  %50 = load i32, ptr %49, align 4, !tbaa !13
  %51 = load ptr, ptr %5, align 8, !tbaa !40
  %52 = getelementptr inbounds i32, ptr %51, i64 2
  %53 = load i32, ptr %52, align 4, !tbaa !13
  %54 = add nsw i32 %50, %53
  store i32 %54, ptr %11, align 4, !tbaa !13
  %55 = load i32, ptr %10, align 4, !tbaa !13
  store i32 %55, ptr %12, align 4, !tbaa !13
  %56 = load ptr, ptr %5, align 8, !tbaa !40
  %57 = getelementptr inbounds i32, ptr %56, i64 1
  %58 = load i32, ptr %57, align 4, !tbaa !13
  %59 = load ptr, ptr %5, align 8, !tbaa !40
  %60 = getelementptr inbounds i32, ptr %59, i64 3
  %61 = load i32, ptr %60, align 4, !tbaa !13
  %62 = mul nsw i32 %61, 2
  %63 = add nsw i32 %58, %62
  %64 = add nsw i32 %63, 2
  %65 = ashr i32 %64, 2
  %66 = load ptr, ptr %5, align 8, !tbaa !40
  %67 = getelementptr inbounds i32, ptr %66, i64 1
  %68 = load i32, ptr %67, align 4, !tbaa !13
  %69 = add nsw i32 %65, %68
  store i32 %69, ptr %10, align 4, !tbaa !13
  %70 = load ptr, ptr %5, align 8, !tbaa !40
  %71 = getelementptr inbounds i32, ptr %70, i64 1
  %72 = load i32, ptr %71, align 4, !tbaa !13
  %73 = mul nsw i32 %72, 2
  %74 = load ptr, ptr %5, align 8, !tbaa !40
  %75 = getelementptr inbounds i32, ptr %74, i64 3
  %76 = load i32, ptr %75, align 4, !tbaa !13
  %77 = sub nsw i32 %73, %76
  %78 = add nsw i32 %77, 2
  %79 = ashr i32 %78, 2
  %80 = load ptr, ptr %5, align 8, !tbaa !40
  %81 = getelementptr inbounds i32, ptr %80, i64 3
  %82 = load i32, ptr %81, align 4, !tbaa !13
  %83 = sub nsw i32 %79, %82
  store i32 %83, ptr %13, align 4, !tbaa !13
  %84 = load i32, ptr %10, align 4, !tbaa !13
  store i32 %84, ptr %14, align 4, !tbaa !13
  %85 = load i32, ptr %11, align 4, !tbaa !13
  %86 = load i32, ptr %14, align 4, !tbaa !13
  %87 = sub nsw i32 %85, %86
  store i32 %87, ptr %10, align 4, !tbaa !13
  %88 = load i32, ptr %11, align 4, !tbaa !13
  %89 = load i32, ptr %14, align 4, !tbaa !13
  %90 = add nsw i32 %88, %89
  store i32 %90, ptr %11, align 4, !tbaa !13
  %91 = load i32, ptr %10, align 4, !tbaa !13
  store i32 %91, ptr %14, align 4, !tbaa !13
  %92 = load i32, ptr %12, align 4, !tbaa !13
  %93 = load i32, ptr %13, align 4, !tbaa !13
  %94 = sub nsw i32 %92, %93
  store i32 %94, ptr %10, align 4, !tbaa !13
  %95 = load i32, ptr %12, align 4, !tbaa !13
  %96 = load i32, ptr %13, align 4, !tbaa !13
  %97 = add nsw i32 %95, %96
  store i32 %97, ptr %12, align 4, !tbaa !13
  %98 = load i32, ptr %10, align 4, !tbaa !13
  store i32 %98, ptr %13, align 4, !tbaa !13
  %99 = load i32, ptr %11, align 4, !tbaa !13
  %100 = add nsw i32 %99, 1
  %101 = ashr i32 %100, 1
  %102 = trunc i32 %101 to i16
  %103 = load ptr, ptr %6, align 8, !tbaa !30
  %104 = getelementptr inbounds i16, ptr %103, i64 0
  store i16 %102, ptr %104, align 2, !tbaa !32
  %105 = load i32, ptr %12, align 4, !tbaa !13
  %106 = add nsw i32 %105, 1
  %107 = ashr i32 %106, 1
  %108 = trunc i32 %107 to i16
  %109 = load ptr, ptr %6, align 8, !tbaa !30
  %110 = getelementptr inbounds i16, ptr %109, i64 1
  store i16 %108, ptr %110, align 2, !tbaa !32
  %111 = load i32, ptr %13, align 4, !tbaa !13
  %112 = add nsw i32 %111, 1
  %113 = ashr i32 %112, 1
  %114 = trunc i32 %113 to i16
  %115 = load ptr, ptr %6, align 8, !tbaa !30
  %116 = getelementptr inbounds i16, ptr %115, i64 2
  store i16 %114, ptr %116, align 2, !tbaa !32
  %117 = load i32, ptr %14, align 4, !tbaa !13
  %118 = add nsw i32 %117, 1
  %119 = ashr i32 %118, 1
  %120 = trunc i32 %119 to i16
  %121 = load ptr, ptr %6, align 8, !tbaa !30
  %122 = getelementptr inbounds i16, ptr %121, i64 3
  store i16 %120, ptr %122, align 2, !tbaa !32
  br label %123

123:                                              ; preds = %40, %38
  %124 = load ptr, ptr %5, align 8, !tbaa !40
  %125 = getelementptr inbounds i32, ptr %124, i64 4
  store ptr %125, ptr %5, align 8, !tbaa !40
  %126 = load i64, ptr %7, align 8, !tbaa !11
  %127 = load ptr, ptr %6, align 8, !tbaa !30
  %128 = getelementptr inbounds i16, ptr %127, i64 %126
  store ptr %128, ptr %6, align 8, !tbaa !30
  br label %129

129:                                              ; preds = %123
  %130 = load i32, ptr %9, align 4, !tbaa !13
  %131 = add nsw i32 %130, 1
  store i32 %131, ptr %9, align 4, !tbaa !13
  br label %15, !llvm.loop !65

132:                                              ; preds = %15
  call void @llvm.lifetime.end.p0(i64 4, ptr %14) #4
  call void @llvm.lifetime.end.p0(i64 4, ptr %13) #4
  call void @llvm.lifetime.end.p0(i64 4, ptr %12) #4
  call void @llvm.lifetime.end.p0(i64 4, ptr %11) #4
  call void @llvm.lifetime.end.p0(i64 4, ptr %10) #4
  call void @llvm.lifetime.end.p0(i64 4, ptr %9) #4
  ret void
}