; Function Attrs: nofree norecurse nosync nounwind memory(argmem: readwrite) uwtable
define void @ff_ivi_row_slant4(ptr noundef readonly captures(none) %0, ptr noundef writeonly captures(none) %1, i64 noundef %2, ptr noundef readnone captures(none) %3) local_unnamed_addr #2 {
  br label %5

5:                                                ; preds = %4, %49
  %.048 = phi ptr [ %0, %4 ], [ %50, %49 ]
  %.03947 = phi ptr [ %1, %4 ], [ %51, %49 ]
  %.04046 = phi i32 [ 0, %4 ], [ %52, %49 ]
  %6 = load i32, ptr %.048, align 4, !tbaa !34
  %.not = icmp eq i32 %6, 0
  %7 = getelementptr inbounds nuw i8, ptr %.048, i64 4
  %8 = load i32, ptr %7, align 4, !tbaa !34
  %.not41 = icmp eq i32 %8, 0
  %or.cond = select i1 %.not, i1 %.not41, i1 false
  br i1 %or.cond, label %9, label %._crit_edge

9:                                                ; preds = %5
  %10 = getelementptr inbounds nuw i8, ptr %.048, i64 8
  %11 = load i32, ptr %10, align 4, !tbaa !34
  %.not42 = icmp eq i32 %11, 0
  br i1 %.not42, label %12, label %._crit_edge

12:                                               ; preds = %9
  %13 = getelementptr inbounds nuw i8, ptr %.048, i64 12
  %14 = load i32, ptr %13, align 4, !tbaa !34
  %.not43 = icmp eq i32 %14, 0
  br i1 %.not43, label %15, label %._crit_edge

15:                                               ; preds = %12
  store i64 0, ptr %.03947, align 2
  br label %49

._crit_edge:                                      ; preds = %5, %12, %9
  %16 = phi i32 [ 0, %12 ], [ 0, %9 ], [ %8, %5 ]
  %17 = getelementptr inbounds nuw i8, ptr %.048, i64 8
  %18 = load i32, ptr %17, align 4, !tbaa !34
  %19 = sub nsw i32 %6, %18
  %20 = add nsw i32 %18, %6
  %21 = getelementptr inbounds nuw i8, ptr %.048, i64 12
  %22 = load i32, ptr %21, align 4, !tbaa !34
  %23 = shl nsw i32 %22, 1
  %24 = add i32 %16, 2
  %25 = add i32 %24, %23
  %26 = ashr i32 %25, 2
  %27 = add nsw i32 %26, %16
  %28 = shl nsw i32 %16, 1
  %reass.sub = sub i32 %28, %22
  %29 = add i32 %reass.sub, 2
  %30 = ashr i32 %29, 2
  %31 = sub nsw i32 %30, %22
  %32 = add i32 %20, 1
  %33 = add i32 %32, %27
  %34 = lshr i32 %33, 1
  %35 = trunc i32 %34 to i16
  store i16 %35, ptr %.03947, align 2, !tbaa !27
  %36 = add i32 %19, 1
  %37 = add i32 %36, %31
  %38 = lshr i32 %37, 1
  %39 = trunc i32 %38 to i16
  %40 = getelementptr inbounds nuw i8, ptr %.03947, i64 2
  store i16 %39, ptr %40, align 2, !tbaa !27
  %41 = sub i32 %36, %31
  %42 = lshr i32 %41, 1
  %43 = trunc i32 %42 to i16
  %44 = getelementptr inbounds nuw i8, ptr %.03947, i64 4
  store i16 %43, ptr %44, align 2, !tbaa !27
  %45 = sub i32 %32, %27
  %46 = lshr i32 %45, 1
  %47 = trunc i32 %46 to i16
  %48 = getelementptr inbounds nuw i8, ptr %.03947, i64 6
  store i16 %47, ptr %48, align 2, !tbaa !27
  br label %49

49:                                               ; preds = %._crit_edge, %15
  %50 = getelementptr inbounds nuw i8, ptr %.048, i64 16
  %51 = getelementptr inbounds i16, ptr %.03947, i64 %2
  %52 = add nuw nsw i32 %.04046, 1
  %exitcond.not = icmp eq i32 %52, 4
  br i1 %exitcond.not, label %53, label %5, !llvm.loop !56

53:                                               ; preds = %49
  ret void
}